target datalayout = "e-m:e-p270:32:32-p271:32:32-p272:64:64-i64:64-i128:128-f80:128-n8:16:32:64-S128"
target triple = "x86_64-pc-linux-gnu"

%struct.jpeg_compress_struct = type { ptr, ptr, ptr, ptr, i32, i32, ptr, i32, i32, i32, i32, double, i32, i32, i32, ptr, [4 x ptr], [4 x ptr], [4 x ptr], [16 x i8], [16 x i8], [16 x i8], i32, ptr, i32, i32, i32, i32, i32, i32, i32, i32, i32, i8, i8, i8, i16, i16, i32, i32, i32, i32, i32, i32, i32, [4 x ptr], i32, i32, i32, [10 x i32], i32, i32, i32, i32, ptr, ptr, ptr, ptr, ptr, ptr, ptr, ptr, ptr, ptr, i32 }
%struct.jpeg_lossless_compressor = type { %struct.jpeg_forward_dct, [10 x ptr], [10 x i32], ptr }
%struct.jpeg_forward_dct = type { ptr, ptr, ptr }

; Function Attrs: nounwind uwtable
define internal void @reset_predictor(ptr noundef %0, i32 noundef %1) #0 {
  %3 = alloca ptr, align 8
  %4 = alloca i32, align 4
  %5 = alloca ptr, align 8
  store ptr %0, ptr %3, align 8, !tbaa !3
  store i32 %1, ptr %4, align 4, !tbaa !45
  call void @llvm.lifetime.start.p0(i64 8, ptr %5) #3
  %6 = load ptr, ptr %3, align 8, !tbaa !3
  %7 = getelementptr inbounds nuw %struct.jpeg_compress_struct, ptr %6, i32 0, i32 61
  %8 = load ptr, ptr %7, align 8, !tbaa !37
  store ptr %8, ptr %5, align 8, !tbaa !36
  %9 = load ptr, ptr %3, align 8, !tbaa !3
  %10 = getelementptr inbounds nuw %struct.jpeg_compress_struct, ptr %9, i32 0, i32 30
  %11 = load i32, ptr %10, align 8, !tbaa !43
  %12 = load ptr, ptr %3, align 8, !tbaa !3
  %13 = getelementptr inbounds nuw %struct.jpeg_compress_struct, ptr %12, i32 0, i32 46
  %14 = load i32, ptr %13, align 8, !tbaa !44
  %15 = udiv i32 %11, %14
  %16 = load ptr, ptr %5, align 8, !tbaa !36
  %17 = getelementptr inbounds nuw %struct.jpeg_lossless_compressor, ptr %16, i32 0, i32 2
  %18 = load i32, ptr %4, align 4, !tbaa !45
  %19 = sext i32 %18 to i64
  %20 = getelementptr inbounds [10 x i32], ptr %17, i64 0, i64 %19
  store i32 %15, ptr %20, align 4, !tbaa !45
  %21 = load ptr, ptr %5, align 8, !tbaa !36
  %22 = getelementptr inbounds nuw %struct.jpeg_lossless_compressor, ptr %21, i32 0, i32 1
  %23 = load i32, ptr %4, align 4, !tbaa !45
  %24 = sext i32 %23 to i64
  %25 = getelementptr inbounds [10 x ptr], ptr %22, i64 0, i64 %24
  store ptr @jpeg_difference_first_row, ptr %25, align 8, !tbaa !36
  call void @llvm.lifetime.end.p0(i64 8, ptr %5) #3
  ret void
}

; Function Attrs: nounwind uwtable
define internal void @jpeg_difference1(ptr noundef %0, i32 noundef %1, ptr noundef %2, ptr noundef %3, ptr noundef %4, i32 noundef %5) #0 {
  %7 = alloca ptr, align 8
  %8 = alloca i32, align 4
  %9 = alloca ptr, align 8
  %10 = alloca ptr, align 8
  %11 = alloca ptr, align 8
  %12 = alloca i32, align 4
  %13 = alloca ptr, align 8
  %14 = alloca i32, align 4
  %15 = alloca i32, align 4
  %16 = alloca i32, align 4
  store ptr %0, ptr %7, align 8, !tbaa !3
  store i32 %1, ptr %8, align 4, !tbaa !45
  store ptr %2, ptr %9, align 8, !tbaa !49
  store ptr %3, ptr %10, align 8, !tbaa !49
  store ptr %4, ptr %11, align 8, !tbaa !52
  store i32 %5, ptr %12, align 4, !tbaa !45
  call void @llvm.lifetime.start.p0(i64 8, ptr %13) #3
  %17 = load ptr, ptr %7, align 8, !tbaa !3
  %18 = getelementptr inbounds nuw %struct.jpeg_compress_struct, ptr %17, i32 0, i32 61
  %19 = load ptr, ptr %18, align 8, !tbaa !37
  store ptr %19, ptr %13, align 8, !tbaa !36
  call void @llvm.lifetime.start.p0(i64 4, ptr %14) #3
  store i32 0, ptr %14, align 4, !tbaa !45
  call void @llvm.lifetime.start.p0(i64 4, ptr %15) #3
  call void @llvm.lifetime.start.p0(i64 4, ptr %16) #3
  %20 = load ptr, ptr %9, align 8, !tbaa !49
  %21 = getelementptr inbounds nuw i8, ptr %20, i32 1
  store ptr %21, ptr %9, align 8, !tbaa !49
  %22 = load i8, ptr %20, align 1, !tbaa !31
  %23 = zext i8 %22 to i32
  store i32 %23, ptr %15, align 4, !tbaa !45
  %24 = load i32, ptr %15, align 4, !tbaa !45
  %25 = load ptr, ptr %10, align 8, !tbaa !49
  %26 = getelementptr inbounds i8, ptr %25, i64 0
  %27 = load i8, ptr %26, align 1, !tbaa !31
  %28 = zext i8 %27 to i32
  %29 = sub nsw i32 %24, %28
  %30 = load ptr, ptr %11, align 8, !tbaa !52
  %31 = getelementptr inbounds nuw i32, ptr %30, i32 1
  store ptr %31, ptr %11, align 8, !tbaa !52
  store i32 %29, ptr %30, align 4, !tbaa !45
  br label %32

32:                                               ; preds = %36, %6
  %33 = load i32, ptr %12, align 4, !tbaa !45
  %34 = add i32 %33, -1
  store i32 %34, ptr %12, align 4, !tbaa !45
  %35 = icmp ne i32 %34, 0
  br i1 %35, label %36, label %47

36:                                               ; preds = %32
  %37 = load i32, ptr %15, align 4, !tbaa !45
  store i32 %37, ptr %16, align 4, !tbaa !45
  %38 = load ptr, ptr %9, align 8, !tbaa !49
  %39 = getelementptr inbounds nuw i8, ptr %38, i32 1
  store ptr %39, ptr %9, align 8, !tbaa !49
  %40 = load i8, ptr %38, align 1, !tbaa !31
  %41 = zext i8 %40 to i32
  store i32 %41, ptr %15, align 4, !tbaa !45
  %42 = load i32, ptr %15, align 4, !tbaa !45
  %43 = load i32, ptr %16, align 4, !tbaa !45
  %44 = sub nsw i32 %42, %43
  %45 = load ptr, ptr %11, align 8, !tbaa !52
  %46 = getelementptr inbounds nuw i32, ptr %45, i32 1
  store ptr %46, ptr %11, align 8, !tbaa !52
  store i32 %44, ptr %45, align 4, !tbaa !45
  br label %32, !llvm.loop !56

47:                                               ; preds = %32
  %48 = load ptr, ptr %7, align 8, !tbaa !3
  %49 = getelementptr inbounds nuw %struct.jpeg_compress_struct, ptr %48, i32 0, i32 30
  %50 = load i32, ptr %49, align 8, !tbaa !43
  %51 = icmp ne i32 %50, 0
  br i1 %51, label %52, label %65

52:                                               ; preds = %47
  %53 = load ptr, ptr %13, align 8, !tbaa !36
  %54 = getelementptr inbounds nuw %struct.jpeg_lossless_compressor, ptr %53, i32 0, i32 2
  %55 = load i32, ptr %8, align 4, !tbaa !45
  %56 = sext i32 %55 to i64
  %57 = getelementptr inbounds [10 x i32], ptr %54, i64 0, i64 %56
  %58 = load i32, ptr %57, align 4, !tbaa !45
  %59 = add i32 %58, -1
  store i32 %59, ptr %57, align 4, !tbaa !45
  %60 = icmp eq i32 %59, 0
  br i1 %60, label %61, label %64

61:                                               ; preds = %52
  %62 = load ptr, ptr %7, align 8, !tbaa !3
  %63 = load i32, ptr %8, align 4, !tbaa !45
  call void @reset_predictor(ptr noundef %62, i32 noundef %63)
  store i32 1, ptr %14, align 4, !tbaa !45
  br label %64

64:                                               ; preds = %61, %52
  br label %65

65:                                               ; preds = %64, %47
  call void @llvm.lifetime.end.p0(i64 4, ptr %16) #3
  call void @llvm.lifetime.end.p0(i64 4, ptr %15) #3
  call void @llvm.lifetime.end.p0(i64 4, ptr %14) #3
  call void @llvm.lifetime.end.p0(i64 8, ptr %13) #3
  ret void
}