; Function Attrs: nofree norecurse nosync nounwind memory(readwrite, inaccessiblemem: none) uwtable
define internal void @jpeg_difference1(ptr noundef readonly captures(none) %0, i32 noundef %1, ptr noundef readonly captures(none) %2, ptr noundef readonly captures(none) %3, ptr noundef writeonly captures(none) initializes((0, 4)) %4, i32 noundef %5) #4 {
  %7 = getelementptr inbounds nuw i8, ptr %0, i64 488
  %8 = load ptr, ptr %7, align 8, !tbaa !34
  %9 = load i8, ptr %2, align 1, !tbaa !29
  %10 = zext i8 %9 to i32
  %11 = load i8, ptr %3, align 1, !tbaa !29
  %12 = zext i8 %11 to i32
  %13 = sub nsw i32 %10, %12
  store i32 %13, ptr %4, align 4, !tbaa !43
  %14 = add i32 %5, -1
  %.not21 = icmp eq i32 %14, 0
  br i1 %.not21, label %._crit_edge, label %.lr.ph

.lr.ph:                                           ; preds = %6, %.lr.ph
  %15 = phi i32 [ %19, %.lr.ph ], [ %14, %6 ]
  %.pn24 = phi ptr [ %.0, %.lr.ph ], [ %2, %6 ]
  %.01523 = phi i32 [ %17, %.lr.ph ], [ %10, %6 ]
  %.pn2022 = phi ptr [ %.016, %.lr.ph ], [ %4, %6 ]
  %.016 = getelementptr inbounds nuw i8, ptr %.pn2022, i64 4
  %.0 = getelementptr inbounds nuw i8, ptr %.pn24, i64 1
  %16 = load i8, ptr %.0, align 1, !tbaa !29
  %17 = zext i8 %16 to i32
  %18 = sub nsw i32 %17, %.01523
  store i32 %18, ptr %.016, align 4, !tbaa !43
  %19 = add i32 %15, -1
  %.not = icmp eq i32 %19, 0
  br i1 %.not, label %._crit_edge, label %.lr.ph, !llvm.loop !50

._crit_edge:                                      ; preds = %.lr.ph, %6
  %20 = getelementptr inbounds nuw i8, ptr %0, i64 280
  %21 = load i32, ptr %20, align 8, !tbaa !40
  %.not19 = icmp eq i32 %21, 0
  br i1 %.not19, label %36, label %22

22:                                               ; preds = %._crit_edge
  %23 = getelementptr inbounds nuw i8, ptr %8, i64 104
  %24 = sext i32 %1 to i64
  %25 = getelementptr inbounds [10 x i32], ptr %23, i64 0, i64 %24
  %26 = load i32, ptr %25, align 4, !tbaa !43
  %27 = add i32 %26, -1
  store i32 %27, ptr %25, align 4, !tbaa !43
  %28 = icmp eq i32 %27, 0
  br i1 %28, label %29, label %36

29:                                               ; preds = %22
  %30 = load i32, ptr %20, align 8, !tbaa !40
  %31 = getelementptr inbounds nuw i8, ptr %0, i64 360
  %32 = load i32, ptr %31, align 8, !tbaa !41
  %33 = udiv i32 %30, %32
  store i32 %33, ptr %25, align 4, !tbaa !43
  %34 = getelementptr inbounds nuw i8, ptr %8, i64 24
  %35 = getelementptr inbounds [10 x ptr], ptr %34, i64 0, i64 %24
  store ptr @jpeg_difference_first_row, ptr %35, align 8, !tbaa !44
  br label %36

36:                                               ; preds = %22, %29, %._crit_edge
  ret void
}